; ModuleID = '46/2029.c'
source_filename = "46/2029.c"
target datalayout = "e-m:e-p270:32:32-p271:32:32-p272:64:64-i64:64-f80:128-n8:16:32:64-S128"
target triple = "x86_64-pc-linux-gnu"

@.str = private unnamed_addr constant [6 x i8] c"%d %d\00", align 1
@.str.1 = private unnamed_addr constant [3 x i8] c"%d\00", align 1
@.str.2 = private unnamed_addr constant [4 x i8] c"%d\0A\00", align 1

; Function Attrs: noinline nounwind uwtable
define dso_local i32 @main() #0 {
  %1 = alloca i32, align 4
  %2 = alloca i32, align 4
  %3 = alloca i32, align 4
  %4 = alloca i32, align 4
  %5 = alloca i32, align 4
  %6 = alloca i32, align 4
  %7 = alloca i32, align 4
  %8 = alloca [100 x [100 x i32]], align 16
  %9 = alloca i32, align 4
  store i32 0, i32* %1, align 4
  store i32 0, i32* %6, align 4
  %10 = call i32 (i8*, ...) @__isoc99_scanf(i8* getelementptr inbounds ([6 x i8], [6 x i8]* @.str, i64 0, i64 0), i32* %2, i32* %3)
  store i32 0, i32* %4, align 4
  br label %11

11:                                               ; preds = %32, %0
  %12 = load i32, i32* %4, align 4
  %13 = load i32, i32* %2, align 4
  %14 = icmp slt i32 %12, %13
  br i1 %14, label %15, label %35

15:                                               ; preds = %11
  store i32 0, i32* %5, align 4
  br label %16

16:                                               ; preds = %28, %15
  %17 = load i32, i32* %5, align 4
  %18 = load i32, i32* %3, align 4
  %19 = icmp slt i32 %17, %18
  br i1 %19, label %20, label %31

20:                                               ; preds = %16
  %21 = load i32, i32* %4, align 4
  %22 = sext i32 %21 to i64
  %23 = getelementptr inbounds [100 x [100 x i32]], [100 x [100 x i32]]* %8, i64 0, i64 %22
  %24 = load i32, i32* %5, align 4
  %25 = sext i32 %24 to i64
  %26 = getelementptr inbounds [100 x i32], [100 x i32]* %23, i64 0, i64 %25
  %27 = call i32 (i8*, ...) @__isoc99_scanf(i8* getelementptr inbounds ([3 x i8], [3 x i8]* @.str.1, i64 0, i64 0), i32* %26)
  br label %28

28:                                               ; preds = %20
  %29 = load i32, i32* %5, align 4
  %30 = add nsw i32 %29, 1
  store i32 %30, i32* %5, align 4
  br label %16

31:                                               ; preds = %16
  br label %32

32:                                               ; preds = %31
  %33 = load i32, i32* %4, align 4
  %34 = add nsw i32 %33, 1
  store i32 %34, i32* %4, align 4
  br label %11

35:                                               ; preds = %11
  %36 = load i32, i32* %2, align 4
  %37 = load i32, i32* %3, align 4
  %38 = icmp sgt i32 %36, %37
  br i1 %38, label %39, label %41

39:                                               ; preds = %35
  %40 = load i32, i32* %2, align 4
  store i32 %40, i32* %9, align 4
  br label %43

41:                                               ; preds = %35
  %42 = load i32, i32* %3, align 4
  store i32 %42, i32* %9, align 4
  br label %43

43:                                               ; preds = %41, %39
  store i32 0, i32* %7, align 4
  br label %44

44:                                               ; preds = %174, %43
  %45 = load i32, i32* %7, align 4
  %46 = load i32, i32* %9, align 4
  %47 = icmp slt i32 %45, %46
  br i1 %47, label %48, label %177

48:                                               ; preds = %44
  %49 = load i32, i32* %7, align 4
  store i32 %49, i32* %5, align 4
  br label %50

50:                                               ; preds = %67, %48
  %51 = load i32, i32* %5, align 4
  %52 = load i32, i32* %3, align 4
  %53 = load i32, i32* %7, align 4
  %54 = sub nsw i32 %52, %53
  %55 = icmp slt i32 %51, %54
  br i1 %55, label %56, label %70

56:                                               ; preds = %50
  %57 = load i32, i32* %7, align 4
  %58 = sext i32 %57 to i64
  %59 = getelementptr inbounds [100 x [100 x i32]], [100 x [100 x i32]]* %8, i64 0, i64 %58
  %60 = load i32, i32* %5, align 4
  %61 = sext i32 %60 to i64
  %62 = getelementptr inbounds [100 x i32], [100 x i32]* %59, i64 0, i64 %61
  %63 = load i32, i32* %62, align 4
  %64 = call i32 (i8*, ...) @printf(i8* getelementptr inbounds ([4 x i8], [4 x i8]* @.str.2, i64 0, i64 0), i32 %63)
  %65 = load i32, i32* %6, align 4
  %66 = add nsw i32 %65, 1
  store i32 %66, i32* %6, align 4
  br label %67

67:                                               ; preds = %56
  %68 = load i32, i32* %5, align 4
  %69 = add nsw i32 %68, 1
  store i32 %69, i32* %5, align 4
  br label %50

70:                                               ; preds = %50
  %71 = load i32, i32* %6, align 4
  %72 = load i32, i32* %2, align 4
  %73 = load i32, i32* %3, align 4
  %74 = mul nsw i32 %72, %73
  %75 = icmp eq i32 %71, %74
  br i1 %75, label %76, label %77

76:                                               ; preds = %70
  br label %177

77:                                               ; preds = %70
  %78 = load i32, i32* %7, align 4
  %79 = add nsw i32 %78, 1
  store i32 %79, i32* %4, align 4
  br label %80

80:                                               ; preds = %100, %77
  %81 = load i32, i32* %4, align 4
  %82 = load i32, i32* %2, align 4
  %83 = load i32, i32* %7, align 4
  %84 = sub nsw i32 %82, %83
  %85 = icmp slt i32 %81, %84
  br i1 %85, label %86, label %103

86:                                               ; preds = %80
  %87 = load i32, i32* %4, align 4
  %88 = sext i32 %87 to i64
  %89 = getelementptr inbounds [100 x [100 x i32]], [100 x [100 x i32]]* %8, i64 0, i64 %88
  %90 = load i32, i32* %3, align 4
  %91 = load i32, i32* %7, align 4
  %92 = sub nsw i32 %90, %91
  %93 = sub nsw i32 %92, 1
  %94 = sext i32 %93 to i64
  %95 = getelementptr inbounds [100 x i32], [100 x i32]* %89, i64 0, i64 %94
  %96 = load i32, i32* %95, align 4
  %97 = call i32 (i8*, ...) @printf(i8* getelementptr inbounds ([4 x i8], [4 x i8]* @.str.2, i64 0, i64 0), i32 %96)
  %98 = load i32, i32* %6, align 4
  %99 = add nsw i32 %98, 1
  store i32 %99, i32* %6, align 4
  br label %100

100:                                              ; preds = %86
  %101 = load i32, i32* %4, align 4
  %102 = add nsw i32 %101, 1
  store i32 %102, i32* %4, align 4
  br label %80

103:                                              ; preds = %80
  %104 = load i32, i32* %6, align 4
  %105 = load i32, i32* %2, align 4
  %106 = load i32, i32* %3, align 4
  %107 = mul nsw i32 %105, %106
  %108 = icmp eq i32 %104, %107
  br i1 %108, label %109, label %110

109:                                              ; preds = %103
  br label %177

110:                                              ; preds = %103
  %111 = load i32, i32* %3, align 4
  %112 = load i32, i32* %7, align 4
  %113 = sub nsw i32 %111, %112
  %114 = sub nsw i32 %113, 2
  store i32 %114, i32* %5, align 4
  br label %115

115:                                              ; preds = %133, %110
  %116 = load i32, i32* %5, align 4
  %117 = load i32, i32* %7, align 4
  %118 = icmp sge i32 %116, %117
  br i1 %118, label %119, label %136

119:                                              ; preds = %115
  %120 = load i32, i32* %2, align 4
  %121 = sub nsw i32 %120, 1
  %122 = load i32, i32* %7, align 4
  %123 = sub nsw i32 %121, %122
  %124 = sext i32 %123 to i64
  %125 = getelementptr inbounds [100 x [100 x i32]], [100 x [100 x i32]]* %8, i64 0, i64 %124
  %126 = load i32, i32* %5, align 4
  %127 = sext i32 %126 to i64
  %128 = getelementptr inbounds [100 x i32], [100 x i32]* %125, i64 0, i64 %127
  %129 = load i32, i32* %128, align 4
  %130 = call i32 (i8*, ...) @printf(i8* getelementptr inbounds ([4 x i8], [4 x i8]* @.str.2, i64 0, i64 0), i32 %129)
  %131 = load i32, i32* %6, align 4
  %132 = add nsw i32 %131, 1
  store i32 %132, i32* %6, align 4
  br label %133

133:                                              ; preds = %119
  %134 = load i32, i32* %5, align 4
  %135 = add nsw i32 %134, -1
  store i32 %135, i32* %5, align 4
  br label %115

136:                                              ; preds = %115
  %137 = load i32, i32* %6, align 4
  %138 = load i32, i32* %2, align 4
  %139 = load i32, i32* %3, align 4
  %140 = mul nsw i32 %138, %139
  %141 = icmp eq i32 %137, %140
  br i1 %141, label %142, label %143

142:                                              ; preds = %136
  br label %177

143:                                              ; preds = %136
  %144 = load i32, i32* %2, align 4
  %145 = load i32, i32* %7, align 4
  %146 = sub nsw i32 %144, %145
  %147 = sub nsw i32 %146, 2
  store i32 %147, i32* %4, align 4
  br label %148

148:                                              ; preds = %163, %143
  %149 = load i32, i32* %4, align 4
  %150 = load i32, i32* %7, align 4
  %151 = icmp sgt i32 %149, %150
  br i1 %151, label %152, label %166

152:                                              ; preds = %148
  %153 = load i32, i32* %4, align 4
  %154 = sext i32 %153 to i64
  %155 = getelementptr inbounds [100 x [100 x i32]], [100 x [100 x i32]]* %8, i64 0, i64 %154
  %156 = load i32, i32* %7, align 4
  %157 = sext i32 %156 to i64
  %158 = getelementptr inbounds [100 x i32], [100 x i32]* %155, i64 0, i64 %157
  %159 = load i32, i32* %158, align 4
  %160 = call i32 (i8*, ...) @printf(i8* getelementptr inbounds ([4 x i8], [4 x i8]* @.str.2, i64 0, i64 0), i32 %159)
  %161 = load i32, i32* %6, align 4
  %162 = add nsw i32 %161, 1
  store i32 %162, i32* %6, align 4
  br label %163

163:                                              ; preds = %152
  %164 = load i32, i32* %4, align 4
  %165 = add nsw i32 %164, -1
  store i32 %165, i32* %4, align 4
  br label %148

166:                                              ; preds = %148
  %167 = load i32, i32* %6, align 4
  %168 = load i32, i32* %2, align 4
  %169 = load i32, i32* %3, align 4
  %170 = mul nsw i32 %168, %169
  %171 = icmp eq i32 %167, %170
  br i1 %171, label %172, label %173

172:                                              ; preds = %166
  br label %177

173:                                              ; preds = %166
  br label %174

174:                                              ; preds = %173
  %175 = load i32, i32* %7, align 4
  %176 = add nsw i32 %175, 1
  store i32 %176, i32* %7, align 4
  br label %44

177:                                              ; preds = %172, %142, %109, %76, %44
  ret i32 0
}

declare dso_local i32 @__isoc99_scanf(i8*, ...) #1

declare dso_local i32 @printf(i8*, ...) #1


!llvm.module.flags = !{!0}
!llvm.ident = !{!1}

!0 = !{i32 1, !"wchar_size", i32 4}
!1 = !{!"clang version 10.0.0-4ubuntu1 "}
